target datalayout = "e-m:e-p270:32:32-p271:32:32-p272:64:64-i64:64-i128:128-f80:128-n8:16:32:64-S128"
target triple = "x86_64-pc-linux-gnu"

%struct.OSQPCscMatrix = type { i64, i64, ptr, ptr, ptr, i64, i64 }

; Function Attrs: nounwind uwtable
define void @vec_mult_scalar(ptr noundef %0, double noundef %1, i64 noundef %2) #0 {
  %4 = alloca ptr, align 8
  %5 = alloca double, align 8
  %6 = alloca i64, align 8
  %7 = alloca i64, align 8
  store ptr %0, ptr %4, align 8, !tbaa !3
  store double %1, ptr %5, align 8, !tbaa !8
  store i64 %2, ptr %6, align 8, !tbaa !10
  call void @llvm.lifetime.start.p0(i64 8, ptr %7) #3
  store i64 0, ptr %7, align 8, !tbaa !10
  br label %8

8:                                                ; preds = %19, %3
  %9 = load i64, ptr %7, align 8, !tbaa !10
  %10 = load i64, ptr %6, align 8, !tbaa !10
  %11 = icmp slt i64 %9, %10
  br i1 %11, label %12, label %22

12:                                               ; preds = %8
  %13 = load double, ptr %5, align 8, !tbaa !8
  %14 = load ptr, ptr %4, align 8, !tbaa !3
  %15 = load i64, ptr %7, align 8, !tbaa !10
  %16 = getelementptr inbounds double, ptr %14, i64 %15
  %17 = load double, ptr %16, align 8, !tbaa !8
  %18 = fmul double %17, %13
  store double %18, ptr %16, align 8, !tbaa !8
  br label %19

19:                                               ; preds = %12
  %20 = load i64, ptr %7, align 8, !tbaa !10
  %21 = add nsw i64 %20, 1
  store i64 %21, ptr %7, align 8, !tbaa !10
  br label %8, !llvm.loop !14

22:                                               ; preds = %8
  call void @llvm.lifetime.end.p0(i64 8, ptr %7) #3
  ret void
}

; Function Attrs: nounwind uwtable
define void @vec_negate(ptr noundef %0, i64 noundef %1) #0 {
  %3 = alloca ptr, align 8
  %4 = alloca i64, align 8
  %5 = alloca i64, align 8
  store ptr %0, ptr %3, align 8, !tbaa !3
  store i64 %1, ptr %4, align 8, !tbaa !10
  call void @llvm.lifetime.start.p0(i64 8, ptr %5) #3
  store i64 0, ptr %5, align 8, !tbaa !10
  br label %6

6:                                                ; preds = %19, %2
  %7 = load i64, ptr %5, align 8, !tbaa !10
  %8 = load i64, ptr %4, align 8, !tbaa !10
  %9 = icmp slt i64 %7, %8
  br i1 %9, label %10, label %22

10:                                               ; preds = %6
  %11 = load ptr, ptr %3, align 8, !tbaa !3
  %12 = load i64, ptr %5, align 8, !tbaa !10
  %13 = getelementptr inbounds double, ptr %11, i64 %12
  %14 = load double, ptr %13, align 8, !tbaa !8
  %15 = fneg double %14
  %16 = load ptr, ptr %3, align 8, !tbaa !3
  %17 = load i64, ptr %5, align 8, !tbaa !10
  %18 = getelementptr inbounds double, ptr %16, i64 %17
  store double %15, ptr %18, align 8, !tbaa !8
  br label %19

19:                                               ; preds = %10
  %20 = load i64, ptr %5, align 8, !tbaa !10
  %21 = add nsw i64 %20, 1
  store i64 %21, ptr %5, align 8, !tbaa !10
  br label %6, !llvm.loop !15

22:                                               ; preds = %6
  call void @llvm.lifetime.end.p0(i64 8, ptr %5) #3
  ret void
}

; Function Attrs: nounwind uwtable
define void @vec_set_scalar(ptr noundef %0, double noundef %1, i64 noundef %2) #0 {
  %4 = alloca ptr, align 8
  %5 = alloca double, align 8
  %6 = alloca i64, align 8
  %7 = alloca i64, align 8
  store ptr %0, ptr %4, align 8, !tbaa !3
  store double %1, ptr %5, align 8, !tbaa !8
  store i64 %2, ptr %6, align 8, !tbaa !10
  call void @llvm.lifetime.start.p0(i64 8, ptr %7) #3
  store i64 0, ptr %7, align 8, !tbaa !10
  br label %8

8:                                                ; preds = %17, %3
  %9 = load i64, ptr %7, align 8, !tbaa !10
  %10 = load i64, ptr %6, align 8, !tbaa !10
  %11 = icmp slt i64 %9, %10
  br i1 %11, label %12, label %20

12:                                               ; preds = %8
  %13 = load double, ptr %5, align 8, !tbaa !8
  %14 = load ptr, ptr %4, align 8, !tbaa !3
  %15 = load i64, ptr %7, align 8, !tbaa !10
  %16 = getelementptr inbounds double, ptr %14, i64 %15
  store double %13, ptr %16, align 8, !tbaa !8
  br label %17

17:                                               ; preds = %12
  %18 = load i64, ptr %7, align 8, !tbaa !10
  %19 = add nsw i64 %18, 1
  store i64 %19, ptr %7, align 8, !tbaa !10
  br label %8, !llvm.loop !12

20:                                               ; preds = %8
  call void @llvm.lifetime.end.p0(i64 8, ptr %7) #3
  ret void
}

; Function Attrs: nounwind uwtable
define void @csc_Atxpy(ptr noundef %0, ptr noundef %1, ptr noundef %2, double noundef %3, double noundef %4) #0 {
  %6 = alloca ptr, align 8
  %7 = alloca ptr, align 8
  %8 = alloca ptr, align 8
  %9 = alloca double, align 8
  %10 = alloca double, align 8
  %11 = alloca i64, align 8
  %12 = alloca i64, align 8
  %13 = alloca i64, align 8
  %14 = alloca ptr, align 8
  %15 = alloca ptr, align 8
  %16 = alloca ptr, align 8
  %17 = alloca i32, align 4
  store ptr %0, ptr %6, align 8, !tbaa !16
  store ptr %1, ptr %7, align 8, !tbaa !3
  store ptr %2, ptr %8, align 8, !tbaa !3
  store double %3, ptr %9, align 8, !tbaa !8
  store double %4, ptr %10, align 8, !tbaa !8
  call void @llvm.lifetime.start.p0(i64 8, ptr %11) #3
  call void @llvm.lifetime.start.p0(i64 8, ptr %12) #3
  call void @llvm.lifetime.start.p0(i64 8, ptr %13) #3
  %18 = load ptr, ptr %6, align 8, !tbaa !16
  %19 = getelementptr inbounds nuw %struct.OSQPCscMatrix, ptr %18, i32 0, i32 1
  %20 = load i64, ptr %19, align 8, !tbaa !24
  store i64 %20, ptr %13, align 8, !tbaa !10
  call void @llvm.lifetime.start.p0(i64 8, ptr %14) #3
  %21 = load ptr, ptr %6, align 8, !tbaa !16
  %22 = getelementptr inbounds nuw %struct.OSQPCscMatrix, ptr %21, i32 0, i32 2
  %23 = load ptr, ptr %22, align 8, !tbaa !23
  store ptr %23, ptr %14, align 8, !tbaa !17
  call void @llvm.lifetime.start.p0(i64 8, ptr %15) #3
  %24 = load ptr, ptr %6, align 8, !tbaa !16
  %25 = getelementptr inbounds nuw %struct.OSQPCscMatrix, ptr %24, i32 0, i32 3
  %26 = load ptr, ptr %25, align 8, !tbaa !26
  store ptr %26, ptr %15, align 8, !tbaa !17
  call void @llvm.lifetime.start.p0(i64 8, ptr %16) #3
  %27 = load ptr, ptr %6, align 8, !tbaa !16
  %28 = getelementptr inbounds nuw %struct.OSQPCscMatrix, ptr %27, i32 0, i32 4
  %29 = load ptr, ptr %28, align 8, !tbaa !19
  store ptr %29, ptr %16, align 8, !tbaa !3
  %30 = load double, ptr %10, align 8, !tbaa !8
  %31 = fcmp oeq double %30, 0.000000e+00
  br i1 %31, label %32, label %35

32:                                               ; preds = %5
  %33 = load ptr, ptr %8, align 8, !tbaa !3
  %34 = load i64, ptr %13, align 8, !tbaa !10
  call void @vec_set_scalar(ptr noundef %33, double noundef 0.000000e+00, i64 noundef %34)
  br label %51

35:                                               ; preds = %5
  %36 = load double, ptr %10, align 8, !tbaa !8
  %37 = fcmp oeq double %36, 1.000000e+00
  br i1 %37, label %38, label %39

38:                                               ; preds = %35
  br label %50

39:                                               ; preds = %35
  %40 = load double, ptr %10, align 8, !tbaa !8
  %41 = fcmp oeq double %40, -1.000000e+00
  br i1 %41, label %42, label %45

42:                                               ; preds = %39
  %43 = load ptr, ptr %8, align 8, !tbaa !3
  %44 = load i64, ptr %13, align 8, !tbaa !10
  call void @vec_negate(ptr noundef %43, i64 noundef %44)
  br label %49

45:                                               ; preds = %39
  %46 = load ptr, ptr %8, align 8, !tbaa !3
  %47 = load double, ptr %10, align 8, !tbaa !8
  %48 = load i64, ptr %13, align 8, !tbaa !10
  call void @vec_mult_scalar(ptr noundef %46, double noundef %47, i64 noundef %48)
  br label %49

49:                                               ; preds = %45, %42
  br label %50

50:                                               ; preds = %49, %38
  br label %51

51:                                               ; preds = %50, %32
  %52 = load ptr, ptr %14, align 8, !tbaa !17
  %53 = load i64, ptr %13, align 8, !tbaa !10
  %54 = getelementptr inbounds i64, ptr %52, i64 %53
  %55 = load i64, ptr %54, align 8, !tbaa !10
  %56 = icmp eq i64 %55, 0
  br i1 %56, label %60, label %57

57:                                               ; preds = %51
  %58 = load double, ptr %9, align 8, !tbaa !8
  %59 = fcmp oeq double %58, 0.000000e+00
  br i1 %59, label %60, label %61

60:                                               ; preds = %57, %51
  store i32 1, ptr %17, align 4
  br label %207

61:                                               ; preds = %57
  %62 = load double, ptr %9, align 8, !tbaa !8
  %63 = fcmp oeq double %62, -1.000000e+00
  br i1 %63, label %64, label %110

64:                                               ; preds = %61
  store i64 0, ptr %11, align 8, !tbaa !10
  br label %65

65:                                               ; preds = %106, %64
  %66 = load i64, ptr %11, align 8, !tbaa !10
  %67 = load ptr, ptr %6, align 8, !tbaa !16
  %68 = getelementptr inbounds nuw %struct.OSQPCscMatrix, ptr %67, i32 0, i32 1
  %69 = load i64, ptr %68, align 8, !tbaa !24
  %70 = icmp slt i64 %66, %69
  br i1 %70, label %71, label %109

71:                                               ; preds = %65
  %72 = load ptr, ptr %14, align 8, !tbaa !17
  %73 = load i64, ptr %11, align 8, !tbaa !10
  %74 = getelementptr inbounds i64, ptr %72, i64 %73
  %75 = load i64, ptr %74, align 8, !tbaa !10
  store i64 %75, ptr %12, align 8, !tbaa !10
  br label %76

76:                                               ; preds = %102, %71
  %77 = load i64, ptr %12, align 8, !tbaa !10
  %78 = load ptr, ptr %14, align 8, !tbaa !17
  %79 = load i64, ptr %11, align 8, !tbaa !10
  %80 = add nsw i64 %79, 1
  %81 = getelementptr inbounds i64, ptr %78, i64 %80
  %82 = load i64, ptr %81, align 8, !tbaa !10
  %83 = icmp slt i64 %77, %82
  br i1 %83, label %84, label %105

84:                                               ; preds = %76
  %85 = load ptr, ptr %16, align 8, !tbaa !3
  %86 = load i64, ptr %12, align 8, !tbaa !10
  %87 = getelementptr inbounds double, ptr %85, i64 %86
  %88 = load double, ptr %87, align 8, !tbaa !8
  %89 = load ptr, ptr %7, align 8, !tbaa !3
  %90 = load ptr, ptr %15, align 8, !tbaa !17
  %91 = load i64, ptr %12, align 8, !tbaa !10
  %92 = getelementptr inbounds i64, ptr %90, i64 %91
  %93 = load i64, ptr %92, align 8, !tbaa !10
  %94 = getelementptr inbounds double, ptr %89, i64 %93
  %95 = load double, ptr %94, align 8, !tbaa !8
  %96 = load ptr, ptr %8, align 8, !tbaa !3
  %97 = load i64, ptr %11, align 8, !tbaa !10
  %98 = getelementptr inbounds double, ptr %96, i64 %97
  %99 = load double, ptr %98, align 8, !tbaa !8
  %100 = fneg double %88
  %101 = call double @llvm.fmuladd.f64(double %100, double %95, double %99)
  store double %101, ptr %98, align 8, !tbaa !8
  br label %102

102:                                              ; preds = %84
  %103 = load i64, ptr %12, align 8, !tbaa !10
  %104 = add nsw i64 %103, 1
  store i64 %104, ptr %12, align 8, !tbaa !10
  br label %76, !llvm.loop !46

105:                                              ; preds = %76
  br label %106

106:                                              ; preds = %105
  %107 = load i64, ptr %11, align 8, !tbaa !10
  %108 = add nsw i64 %107, 1
  store i64 %108, ptr %11, align 8, !tbaa !10
  br label %65, !llvm.loop !47

109:                                              ; preds = %65
  br label %206

110:                                              ; preds = %61
  %111 = load double, ptr %9, align 8, !tbaa !8
  %112 = fcmp oeq double %111, 1.000000e+00
  br i1 %112, label %113, label %158

113:                                              ; preds = %110
  store i64 0, ptr %11, align 8, !tbaa !10
  br label %114

114:                                              ; preds = %154, %113
  %115 = load i64, ptr %11, align 8, !tbaa !10
  %116 = load ptr, ptr %6, align 8, !tbaa !16
  %117 = getelementptr inbounds nuw %struct.OSQPCscMatrix, ptr %116, i32 0, i32 1
  %118 = load i64, ptr %117, align 8, !tbaa !24
  %119 = icmp slt i64 %115, %118
  br i1 %119, label %120, label %157

120:                                              ; preds = %114
  %121 = load ptr, ptr %14, align 8, !tbaa !17
  %122 = load i64, ptr %11, align 8, !tbaa !10
  %123 = getelementptr inbounds i64, ptr %121, i64 %122
  %124 = load i64, ptr %123, align 8, !tbaa !10
  store i64 %124, ptr %12, align 8, !tbaa !10
  br label %125

125:                                              ; preds = %150, %120
  %126 = load i64, ptr %12, align 8, !tbaa !10
  %127 = load ptr, ptr %14, align 8, !tbaa !17
  %128 = load i64, ptr %11, align 8, !tbaa !10
  %129 = add nsw i64 %128, 1
  %130 = getelementptr inbounds i64, ptr %127, i64 %129
  %131 = load i64, ptr %130, align 8, !tbaa !10
  %132 = icmp slt i64 %126, %131
  br i1 %132, label %133, label %153

133:                                              ; preds = %125
  %134 = load ptr, ptr %16, align 8, !tbaa !3
  %135 = load i64, ptr %12, align 8, !tbaa !10
  %136 = getelementptr inbounds double, ptr %134, i64 %135
  %137 = load double, ptr %136, align 8, !tbaa !8
  %138 = load ptr, ptr %7, align 8, !tbaa !3
  %139 = load ptr, ptr %15, align 8, !tbaa !17
  %140 = load i64, ptr %12, align 8, !tbaa !10
  %141 = getelementptr inbounds i64, ptr %139, i64 %140
  %142 = load i64, ptr %141, align 8, !tbaa !10
  %143 = getelementptr inbounds double, ptr %138, i64 %142
  %144 = load double, ptr %143, align 8, !tbaa !8
  %145 = load ptr, ptr %8, align 8, !tbaa !3
  %146 = load i64, ptr %11, align 8, !tbaa !10
  %147 = getelementptr inbounds double, ptr %145, i64 %146
  %148 = load double, ptr %147, align 8, !tbaa !8
  %149 = call double @llvm.fmuladd.f64(double %137, double %144, double %148)
  store double %149, ptr %147, align 8, !tbaa !8
  br label %150

150:                                              ; preds = %133
  %151 = load i64, ptr %12, align 8, !tbaa !10
  %152 = add nsw i64 %151, 1
  store i64 %152, ptr %12, align 8, !tbaa !10
  br label %125, !llvm.loop !48

153:                                              ; preds = %125
  br label %154

154:                                              ; preds = %153
  %155 = load i64, ptr %11, align 8, !tbaa !10
  %156 = add nsw i64 %155, 1
  store i64 %156, ptr %11, align 8, !tbaa !10
  br label %114, !llvm.loop !49

157:                                              ; preds = %114
  br label %205

158:                                              ; preds = %110
  store i64 0, ptr %11, align 8, !tbaa !10
  br label %159

159:                                              ; preds = %201, %158
  %160 = load i64, ptr %11, align 8, !tbaa !10
  %161 = load ptr, ptr %6, align 8, !tbaa !16
  %162 = getelementptr inbounds nuw %struct.OSQPCscMatrix, ptr %161, i32 0, i32 1
  %163 = load i64, ptr %162, align 8, !tbaa !24
  %164 = icmp slt i64 %160, %163
  br i1 %164, label %165, label %204

165:                                              ; preds = %159
  %166 = load ptr, ptr %14, align 8, !tbaa !17
  %167 = load i64, ptr %11, align 8, !tbaa !10
  %168 = getelementptr inbounds i64, ptr %166, i64 %167
  %169 = load i64, ptr %168, align 8, !tbaa !10
  store i64 %169, ptr %12, align 8, !tbaa !10
  br label %170

170:                                              ; preds = %197, %165
  %171 = load i64, ptr %12, align 8, !tbaa !10
  %172 = load ptr, ptr %14, align 8, !tbaa !17
  %173 = load i64, ptr %11, align 8, !tbaa !10
  %174 = add nsw i64 %173, 1
  %175 = getelementptr inbounds i64, ptr %172, i64 %174
  %176 = load i64, ptr %175, align 8, !tbaa !10
  %177 = icmp slt i64 %171, %176
  br i1 %177, label %178, label %200

178:                                              ; preds = %170
  %179 = load double, ptr %9, align 8, !tbaa !8
  %180 = load ptr, ptr %16, align 8, !tbaa !3
  %181 = load i64, ptr %12, align 8, !tbaa !10
  %182 = getelementptr inbounds double, ptr %180, i64 %181
  %183 = load double, ptr %182, align 8, !tbaa !8
  %184 = fmul double %179, %183
  %185 = load ptr, ptr %7, align 8, !tbaa !3
  %186 = load ptr, ptr %15, align 8, !tbaa !17
  %187 = load i64, ptr %12, align 8, !tbaa !10
  %188 = getelementptr inbounds i64, ptr %186, i64 %187
  %189 = load i64, ptr %188, align 8, !tbaa !10
  %190 = getelementptr inbounds double, ptr %185, i64 %189
  %191 = load double, ptr %190, align 8, !tbaa !8
  %192 = load ptr, ptr %8, align 8, !tbaa !3
  %193 = load i64, ptr %11, align 8, !tbaa !10
  %194 = getelementptr inbounds double, ptr %192, i64 %193
  %195 = load double, ptr %194, align 8, !tbaa !8
  %196 = call double @llvm.fmuladd.f64(double %184, double %191, double %195)
  store double %196, ptr %194, align 8, !tbaa !8
  br label %197

197:                                              ; preds = %178
  %198 = load i64, ptr %12, align 8, !tbaa !10
  %199 = add nsw i64 %198, 1
  store i64 %199, ptr %12, align 8, !tbaa !10
  br label %170, !llvm.loop !50

200:                                              ; preds = %170
  br label %201

201:                                              ; preds = %200
  %202 = load i64, ptr %11, align 8, !tbaa !10
  %203 = add nsw i64 %202, 1
  store i64 %203, ptr %11, align 8, !tbaa !10
  br label %159, !llvm.loop !51

204:                                              ; preds = %159
  br label %205

205:                                              ; preds = %204, %157
  br label %206

206:                                              ; preds = %205, %109
  store i32 0, ptr %17, align 4
  br label %207

207:                                              ; preds = %206, %60
  call void @llvm.lifetime.end.p0(i64 8, ptr %16) #3
  call void @llvm.lifetime.end.p0(i64 8, ptr %15) #3
  call void @llvm.lifetime.end.p0(i64 8, ptr %14) #3
  call void @llvm.lifetime.end.p0(i64 8, ptr %13) #3
  call void @llvm.lifetime.end.p0(i64 8, ptr %12) #3
  call void @llvm.lifetime.end.p0(i64 8, ptr %11) #3
  %208 = load i32, ptr %17, align 4
  switch i32 %208, label %210 [
    i32 0, label %209
    i32 1, label %209
  ]

209:                                              ; preds = %207, %207
  ret void

210:                                              ; preds = %207
  unreachable
}