; Function Attrs: nofree norecurse nosync nounwind memory(read, argmem: readwrite, inaccessiblemem: none) uwtable
define void @csc_Atxpy(ptr noundef readonly captures(none) %0, ptr noundef readonly captures(none) %1, ptr noundef captures(none) %2, double noundef %3, double noundef %4) local_unnamed_addr #4 {
  %6 = getelementptr inbounds nuw i8, ptr %0, i64 8
  %7 = load i64, ptr %6, align 8, !tbaa !21
  %8 = getelementptr inbounds nuw i8, ptr %0, i64 16
  %9 = load ptr, ptr %8, align 8, !tbaa !20
  %10 = getelementptr inbounds nuw i8, ptr %0, i64 24
  %11 = load ptr, ptr %10, align 8, !tbaa !23
  %12 = getelementptr inbounds nuw i8, ptr %0, i64 32
  %13 = load ptr, ptr %12, align 8, !tbaa !11
  %14 = fcmp oeq double %4, 0.000000e+00
  br i1 %14, label %15, label %18

15:                                               ; preds = %5
  %16 = icmp sgt i64 %7, 0
  br i1 %16, label %.lr.ph.i.preheader, label %vec_set_scalar.exit

.lr.ph.i.preheader:                               ; preds = %15
  %17 = shl nuw i64 %7, 3
  tail call void @llvm.memset.p0.i64(ptr align 8 %2, i8 0, i64 %17, i1 false), !tbaa !3
  br label %vec_set_scalar.exit

18:                                               ; preds = %5
  %19 = fcmp oeq double %4, 1.000000e+00
  br i1 %19, label %vec_set_scalar.exit, label %20

20:                                               ; preds = %18
  %21 = fcmp oeq double %4, -1.000000e+00
  %22 = icmp sgt i64 %7, 0
  br i1 %21, label %23, label %28

23:                                               ; preds = %20
  br i1 %22, label %.lr.ph.i73, label %vec_set_scalar.exit

.lr.ph.i73:                                       ; preds = %23, %.lr.ph.i73
  %.06.i = phi i64 [ %27, %.lr.ph.i73 ], [ 0, %23 ]
  %24 = getelementptr inbounds nuw double, ptr %2, i64 %.06.i
  %25 = load double, ptr %24, align 8, !tbaa !3
  %26 = fneg double %25
  store double %26, ptr %24, align 8, !tbaa !3
  %27 = add nuw nsw i64 %.06.i, 1
  %exitcond.not.i74 = icmp eq i64 %27, %7
  br i1 %exitcond.not.i74, label %vec_set_scalar.exit, label %.lr.ph.i73, !llvm.loop !10

28:                                               ; preds = %20
  br i1 %22, label %.lr.ph.i75, label %vec_set_scalar.exit

.lr.ph.i75:                                       ; preds = %28, %.lr.ph.i75
  %.05.i76 = phi i64 [ %32, %.lr.ph.i75 ], [ 0, %28 ]
  %29 = getelementptr inbounds nuw double, ptr %2, i64 %.05.i76
  %30 = load double, ptr %29, align 8, !tbaa !3
  %31 = fmul double %4, %30
  store double %31, ptr %29, align 8, !tbaa !3
  %32 = add nuw nsw i64 %.05.i76, 1
  %exitcond.not.i77 = icmp eq i64 %32, %7
  br i1 %exitcond.not.i77, label %vec_set_scalar.exit, label %.lr.ph.i75, !llvm.loop !9

vec_set_scalar.exit:                              ; preds = %.lr.ph.i75, %.lr.ph.i73, %.lr.ph.i.preheader, %28, %23, %15, %18
  %33 = getelementptr inbounds i64, ptr %9, i64 %7
  %34 = load i64, ptr %33, align 8, !tbaa !17
  %35 = icmp eq i64 %34, 0
  %36 = fcmp oeq double %3, 0.000000e+00
  %or.cond = or i1 %36, %35
  br i1 %or.cond, label %.loopexit78, label %37

37:                                               ; preds = %vec_set_scalar.exit
  %38 = fcmp oeq double %3, -1.000000e+00
  br i1 %38, label %.preheader, label %57

.preheader:                                       ; preds = %37
  %39 = icmp sgt i64 %7, 0
  br i1 %39, label %.lr.ph101.preheader, label %.loopexit78

.lr.ph101.preheader:                              ; preds = %.preheader
  %.pre112 = load i64, ptr %9, align 8, !tbaa !17
  br label %.lr.ph101

.loopexit:                                        ; preds = %46, %.lr.ph101
  %exitcond110.not = icmp eq i64 %41, %7
  br i1 %exitcond110.not, label %.loopexit78, label %.lr.ph101, !llvm.loop !43

.lr.ph101:                                        ; preds = %.lr.ph101.preheader, %.loopexit
  %40 = phi i64 [ %43, %.loopexit ], [ %.pre112, %.lr.ph101.preheader ]
  %.0100 = phi i64 [ %41, %.loopexit ], [ 0, %.lr.ph101.preheader ]
  %41 = add nuw nsw i64 %.0100, 1
  %42 = getelementptr inbounds nuw i64, ptr %9, i64 %41
  %43 = load i64, ptr %42, align 8, !tbaa !17
  %44 = icmp slt i64 %40, %43
  br i1 %44, label %.lr.ph98, label %.loopexit

.lr.ph98:                                         ; preds = %.lr.ph101
  %45 = getelementptr inbounds nuw double, ptr %2, i64 %.0100
  %.promoted99 = load double, ptr %45, align 8, !tbaa !3
  br label %46

46:                                               ; preds = %.lr.ph98, %46
  %47 = phi double [ %.promoted99, %.lr.ph98 ], [ %55, %46 ]
  %.06897 = phi i64 [ %40, %.lr.ph98 ], [ %56, %46 ]
  %48 = getelementptr inbounds double, ptr %13, i64 %.06897
  %49 = load double, ptr %48, align 8, !tbaa !3
  %50 = getelementptr inbounds i64, ptr %11, i64 %.06897
  %51 = load i64, ptr %50, align 8, !tbaa !17
  %52 = getelementptr inbounds double, ptr %1, i64 %51
  %53 = load double, ptr %52, align 8, !tbaa !3
  %54 = fneg double %49
  %55 = tail call double @llvm.fmuladd.f64(double %54, double %53, double %47)
  store double %55, ptr %45, align 8, !tbaa !3
  %56 = add nsw i64 %.06897, 1
  %exitcond109.not = icmp eq i64 %56, %43
  br i1 %exitcond109.not, label %.loopexit, label %46, !llvm.loop !44

57:                                               ; preds = %37
  %58 = fcmp oeq double %3, 1.000000e+00
  %59 = icmp sgt i64 %7, 0
  br i1 %58, label %.preheader80, label %.preheader83

.preheader83:                                     ; preds = %57
  br i1 %59, label %.lr.ph91.preheader, label %.loopexit78

.lr.ph91.preheader:                               ; preds = %.preheader83
  %.pre = load i64, ptr %9, align 8, !tbaa !17
  br label %.lr.ph91

.preheader80:                                     ; preds = %57
  br i1 %59, label %.lr.ph96.preheader, label %.loopexit78

.lr.ph96.preheader:                               ; preds = %.preheader80
  %.pre111 = load i64, ptr %9, align 8, !tbaa !17
  br label %.lr.ph96

.loopexit79:                                      ; preds = %66, %.lr.ph96
  %exitcond108.not = icmp eq i64 %61, %7
  br i1 %exitcond108.not, label %.loopexit78, label %.lr.ph96, !llvm.loop !45

.lr.ph96:                                         ; preds = %.lr.ph96.preheader, %.loopexit79
  %60 = phi i64 [ %63, %.loopexit79 ], [ %.pre111, %.lr.ph96.preheader ]
  %.195 = phi i64 [ %61, %.loopexit79 ], [ 0, %.lr.ph96.preheader ]
  %61 = add nuw nsw i64 %.195, 1
  %62 = getelementptr inbounds nuw i64, ptr %9, i64 %61
  %63 = load i64, ptr %62, align 8, !tbaa !17
  %64 = icmp slt i64 %60, %63
  br i1 %64, label %.lr.ph93, label %.loopexit79

.lr.ph93:                                         ; preds = %.lr.ph96
  %65 = getelementptr inbounds nuw double, ptr %2, i64 %.195
  %.promoted94 = load double, ptr %65, align 8, !tbaa !3
  br label %66

66:                                               ; preds = %.lr.ph93, %66
  %67 = phi double [ %.promoted94, %.lr.ph93 ], [ %74, %66 ]
  %.16992 = phi i64 [ %60, %.lr.ph93 ], [ %75, %66 ]
  %68 = getelementptr inbounds double, ptr %13, i64 %.16992
  %69 = load double, ptr %68, align 8, !tbaa !3
  %70 = getelementptr inbounds i64, ptr %11, i64 %.16992
  %71 = load i64, ptr %70, align 8, !tbaa !17
  %72 = getelementptr inbounds double, ptr %1, i64 %71
  %73 = load double, ptr %72, align 8, !tbaa !3
  %74 = tail call double @llvm.fmuladd.f64(double %69, double %73, double %67)
  store double %74, ptr %65, align 8, !tbaa !3
  %75 = add nsw i64 %.16992, 1
  %exitcond107.not = icmp eq i64 %75, %63
  br i1 %exitcond107.not, label %.loopexit79, label %66, !llvm.loop !46

.loopexit82:                                      ; preds = %82, %.lr.ph91
  %exitcond106.not = icmp eq i64 %77, %7
  br i1 %exitcond106.not, label %.loopexit78, label %.lr.ph91, !llvm.loop !47

.lr.ph91:                                         ; preds = %.lr.ph91.preheader, %.loopexit82
  %76 = phi i64 [ %79, %.loopexit82 ], [ %.pre, %.lr.ph91.preheader ]
  %.290 = phi i64 [ %77, %.loopexit82 ], [ 0, %.lr.ph91.preheader ]
  %77 = add nuw nsw i64 %.290, 1
  %78 = getelementptr inbounds nuw i64, ptr %9, i64 %77
  %79 = load i64, ptr %78, align 8, !tbaa !17
  %80 = icmp slt i64 %76, %79
  br i1 %80, label %.lr.ph, label %.loopexit82

.lr.ph:                                           ; preds = %.lr.ph91
  %81 = getelementptr inbounds nuw double, ptr %2, i64 %.290
  %.promoted = load double, ptr %81, align 8, !tbaa !3
  br label %82

82:                                               ; preds = %.lr.ph, %82
  %83 = phi double [ %.promoted, %.lr.ph ], [ %91, %82 ]
  %.27089 = phi i64 [ %76, %.lr.ph ], [ %92, %82 ]
  %84 = getelementptr inbounds double, ptr %13, i64 %.27089
  %85 = load double, ptr %84, align 8, !tbaa !3
  %86 = fmul double %3, %85
  %87 = getelementptr inbounds i64, ptr %11, i64 %.27089
  %88 = load i64, ptr %87, align 8, !tbaa !17
  %89 = getelementptr inbounds double, ptr %1, i64 %88
  %90 = load double, ptr %89, align 8, !tbaa !3
  %91 = tail call double @llvm.fmuladd.f64(double %86, double %90, double %83)
  store double %91, ptr %81, align 8, !tbaa !3
  %92 = add nsw i64 %.27089, 1
  %exitcond.not = icmp eq i64 %92, %79
  br i1 %exitcond.not, label %.loopexit82, label %82, !llvm.loop !48

.loopexit78:                                      ; preds = %.loopexit82, %.loopexit79, %.loopexit, %.preheader83, %.preheader80, %.preheader, %vec_set_scalar.exit
  ret void
}